target datalayout = "e-m:e-p270:32:32-p271:32:32-p272:64:64-i64:64-i128:128-f80:128-n8:16:32:64-S128"
target triple = "x86_64-pc-linux-gnu"

%"class.OpenSubdiv::v3_6_0::Bfr::Parameterization" = type { i8, i8, i16 }
%"class.OpenSubdiv::v3_6_0::Bfr::Tessellation::Options" = type { i8, i16, i16, [2 x i8] }

; Function Attrs: mustprogress nounwind uwtable
define linkonce_odr noundef i32 @_ZNK10OpenSubdiv6v3_6_03Bfr12Tessellation7Options12GetFacetSizeEv(ptr noundef nonnull align 4 dereferenceable(6) %0) #1 comdat align 2 {
  %2 = alloca ptr, align 8
  store ptr %0, ptr %2, align 8
  %3 = load ptr, ptr %2, align 8
  %4 = load i8, ptr %3, align 4
  %5 = lshr i8 %4, 1
  %6 = and i8 %5, 1
  %7 = zext i8 %6 to i32
  %8 = add nsw i32 3, %7
  ret i32 %8
}

; Function Attrs: mustprogress nounwind uwtable
define linkonce_odr noundef i32 @_ZNK10OpenSubdiv6v3_6_03Bfr12Tessellation7Options14GetFacetStrideEv(ptr noundef nonnull align 4 dereferenceable(6) %0) #1 comdat align 2 {
  %2 = alloca ptr, align 8
  store ptr %0, ptr %2, align 8
  %3 = load ptr, ptr %2, align 8
  %4 = getelementptr inbounds nuw %"class.OpenSubdiv::v3_6_0::Bfr::Tessellation::Options", ptr %3, i32 0, i32 2
  %5 = load i16, ptr %4, align 4
  %6 = sext i16 %5 to i32
  ret i32 %6
}

; Function Attrs: mustprogress nounwind uwtable
define linkonce_odr noundef i32 @_ZNK10OpenSubdiv6v3_6_03Bfr12Tessellation7Options14GetCoordStrideEv(ptr noundef nonnull align 4 dereferenceable(6) %0) #1 comdat align 2 {
  %2 = alloca ptr, align 8
  store ptr %0, ptr %2, align 8
  %3 = load ptr, ptr %2, align 8
  %4 = getelementptr inbounds nuw %"class.OpenSubdiv::v3_6_0::Bfr::Tessellation::Options", ptr %3, i32 0, i32 1
  %5 = load i16, ptr %4, align 2
  %6 = sext i16 %5 to i32
  ret i32 %6
}

; Function Attrs: mustprogress nounwind uwtable
define linkonce_odr noundef zeroext i1 @_ZNK10OpenSubdiv6v3_6_03Bfr16Parameterization7IsValidEv(ptr noundef nonnull align 2 dereferenceable(4) %0) #1 comdat align 2 {
  %2 = alloca ptr, align 8
  store ptr %0, ptr %2, align 8
  %3 = load ptr, ptr %2, align 8
  %4 = getelementptr inbounds nuw %"class.OpenSubdiv::v3_6_0::Bfr::Parameterization", ptr %3, i32 0, i32 2
  %5 = load i16, ptr %4, align 2
  %6 = zext i16 %5 to i32
  %7 = icmp sgt i32 %6, 0
  ret i1 %7
}

; Function Attrs: mustprogress uwtable
define noundef zeroext i1 @_ZN10OpenSubdiv6v3_6_03Bfr12Tessellation17validateArgumentsERKNS1_16ParameterizationEiPKiRKNS2_7OptionsE(ptr noundef nonnull align 8 dereferenceable(64) %0, ptr noundef nonnull align 2 dereferenceable(4) %1, i32 noundef %2, ptr noundef %3, ptr noundef nonnull align 4 dereferenceable(6) %4) #0 align 2 {
  %6 = alloca i1, align 1
  %7 = alloca ptr, align 8
  %8 = alloca ptr, align 8
  %9 = alloca i32, align 4
  %10 = alloca ptr, align 8
  %11 = alloca ptr, align 8
  %12 = alloca i32, align 4
  %13 = alloca i32, align 4
  %14 = alloca i32, align 4
  store ptr %0, ptr %7, align 8
  store ptr %1, ptr %8, align 8
  store i32 %2, ptr %9, align 4
  store ptr %3, ptr %10, align 8
  store ptr %4, ptr %11, align 8
  %15 = load ptr, ptr %8, align 8
  %16 = call noundef zeroext i1 @_ZNK10OpenSubdiv6v3_6_03Bfr16Parameterization7IsValidEv(ptr noundef nonnull align 2 dereferenceable(4) %15)
  br i1 %16, label %18, label %17

17:                                               ; preds = %5
  store i1 false, ptr %6, align 1
  br label %60

18:                                               ; preds = %5
  %19 = load i32, ptr %9, align 4
  %20 = icmp slt i32 %19, 1
  br i1 %20, label %21, label %22

21:                                               ; preds = %18
  store i1 false, ptr %6, align 1
  br label %60

22:                                               ; preds = %18
  store i32 0, ptr %12, align 4
  br label %23

23:                                               ; preds = %36, %22
  %24 = load i32, ptr %12, align 4
  %25 = load i32, ptr %9, align 4
  %26 = icmp slt i32 %24, %25
  br i1 %26, label %27, label %39

27:                                               ; preds = %23
  %28 = load ptr, ptr %10, align 8
  %29 = load i32, ptr %12, align 4
  %30 = sext i32 %29 to i64
  %31 = getelementptr inbounds i32, ptr %28, i64 %30
  %32 = load i32, ptr %31, align 4
  %33 = icmp slt i32 %32, 1
  br i1 %33, label %34, label %35

34:                                               ; preds = %27
  store i1 false, ptr %6, align 1
  br label %60

35:                                               ; preds = %27
  br label %36

36:                                               ; preds = %35
  %37 = load i32, ptr %12, align 4
  %38 = add nsw i32 %37, 1
  store i32 %38, ptr %12, align 4
  br label %23, !llvm.loop !25

39:                                               ; preds = %23
  %40 = load ptr, ptr %11, align 8
  %41 = call noundef i32 @_ZNK10OpenSubdiv6v3_6_03Bfr12Tessellation7Options14GetCoordStrideEv(ptr noundef nonnull align 4 dereferenceable(6) %40)
  store i32 %41, ptr %13, align 4
  %42 = load i32, ptr %13, align 4
  %43 = icmp ne i32 %42, 0
  br i1 %43, label %44, label %48

44:                                               ; preds = %39
  %45 = load i32, ptr %13, align 4
  %46 = icmp slt i32 %45, 2
  br i1 %46, label %47, label %48

47:                                               ; preds = %44
  store i1 false, ptr %6, align 1
  br label %60

48:                                               ; preds = %44, %39
  %49 = load ptr, ptr %11, align 8
  %50 = call noundef i32 @_ZNK10OpenSubdiv6v3_6_03Bfr12Tessellation7Options14GetFacetStrideEv(ptr noundef nonnull align 4 dereferenceable(6) %49)
  store i32 %50, ptr %14, align 4
  %51 = load i32, ptr %14, align 4
  %52 = icmp ne i32 %51, 0
  br i1 %52, label %53, label %59

53:                                               ; preds = %48
  %54 = load i32, ptr %14, align 4
  %55 = load ptr, ptr %11, align 8
  %56 = call noundef i32 @_ZNK10OpenSubdiv6v3_6_03Bfr12Tessellation7Options12GetFacetSizeEv(ptr noundef nonnull align 4 dereferenceable(6) %55)
  %57 = icmp slt i32 %54, %56
  br i1 %57, label %58, label %59

58:                                               ; preds = %53
  store i1 false, ptr %6, align 1
  br label %60

59:                                               ; preds = %53, %48
  store i1 true, ptr %6, align 1
  br label %60

60:                                               ; preds = %59, %58, %47, %34, %21, %17
  %61 = load i1, ptr %6, align 1
  ret i1 %61
}