; Function Attrs: mustprogress nofree norecurse nosync nounwind willreturn memory(argmem: read) uwtable
define noundef zeroext i1 @_ZN10OpenSubdiv6v3_6_03Bfr12Tessellation17validateArgumentsERKNS1_16ParameterizationEiPKiRKNS2_7OptionsE(ptr nocapture noundef nonnull readnone align 8 dereferenceable(64) %0, ptr nocapture noundef nonnull readonly align 2 dereferenceable(4) %1, i32 noundef %2, ptr nocapture noundef readonly %3, ptr nocapture noundef nonnull readonly align 4 dereferenceable(6) %4) local_unnamed_addr #5 align 2 {
  %6 = getelementptr inbounds nuw i8, ptr %1, i64 2
  %7 = load i16, ptr %6, align 2
  %.not20 = icmp eq i16 %7, 0
  %8 = icmp slt i32 %2, 1
  %or.cond19 = or i1 %8, %.not20
  br i1 %or.cond19, label %.loopexit, label %.preheader.preheader

.preheader.preheader:                             ; preds = %5
  %wide.trip.count = zext nneg i32 %2 to i64
  br label %.preheader

9:                                                ; preds = %.preheader
  %indvars.iv.next = add nuw nsw i64 %indvars.iv, 1
  %exitcond.not = icmp eq i64 %indvars.iv.next, %wide.trip.count
  br i1 %exitcond.not, label %13, label %.preheader, !llvm.loop !31

.preheader:                                       ; preds = %.preheader.preheader, %9
  %indvars.iv = phi i64 [ 0, %.preheader.preheader ], [ %indvars.iv.next, %9 ]
  %10 = getelementptr inbounds i32, ptr %3, i64 %indvars.iv
  %11 = load i32, ptr %10, align 4
  %12 = icmp slt i32 %11, 1
  br i1 %12, label %.loopexit, label %9

13:                                               ; preds = %9
  %14 = getelementptr inbounds nuw i8, ptr %4, i64 2
  %15 = load i16, ptr %14, align 2
  %16 = icmp ne i16 %15, 0
  %17 = icmp slt i16 %15, 2
  %or.cond = and i1 %16, %17
  br i1 %or.cond, label %.loopexit, label %18

18:                                               ; preds = %13
  %19 = getelementptr inbounds nuw i8, ptr %4, i64 4
  %20 = load i16, ptr %19, align 4
  %.not = icmp eq i16 %20, 0
  br i1 %.not, label %27, label %21

21:                                               ; preds = %18
  %22 = load i8, ptr %4, align 4
  %23 = lshr i8 %22, 1
  %24 = and i8 %23, 1
  %narrow.i = add nuw nsw i8 %24, 3
  %25 = zext nneg i8 %narrow.i to i16
  %26 = icmp slt i16 %20, %25
  br i1 %26, label %.loopexit, label %27

27:                                               ; preds = %21, %18
  br label %.loopexit

.loopexit:                                        ; preds = %.preheader, %21, %13, %5, %27
  %.0 = phi i1 [ true, %27 ], [ false, %5 ], [ false, %13 ], [ false, %21 ], [ false, %.preheader ]
  ret i1 %.0
}